S'{"files": {"sizes": [1205040672, 177827445, 240558337, 53247, 63038531, 0, 55284], "types": ["all", "pdfs", "images", "gdocs", "zips", "posts", "snippets"], "nums": [515, 67, 226, 31, 17, 0, 26]}}'
p0
.