(ccopy_reg
_reconstructor
p0
(cgviz_api
DataTable
p1
c__builtin__
object
p2
Ntp3
Rp4
(dp5
S'custom_properties'
p6
(dp7
sS'_DataTable__data'
p8
(lp9
((dp10
S'Timestamp'
p11
cdatetime
datetime
p12
(S'\x07\xdf\t\x0b\x00\x00\x00\x00\x00\x00'
p13
tp14
Rp15
sS'Messages'
p16
I5
sNtp17
a((dp18
g11
g12
(S'\x07\xdf\t\x0c\x00\x00\x00\x00\x00\x00'
p19
tp20
Rp21
sg16
I0
sNtp22
a((dp23
g11
g12
(S'\x07\xdf\t\r\x00\x00\x00\x00\x00\x00'
p24
tp25
Rp26
sg16
I0
sNtp27
a((dp28
g11
g12
(S'\x07\xdf\t\x0e\x00\x00\x00\x00\x00\x00'
p29
tp30
Rp31
sg16
I3
sNtp32
a((dp33
g11
g12
(S'\x07\xdf\t\x0f\x00\x00\x00\x00\x00\x00'
p34
tp35
Rp36
sg16
I4
sNtp37
a((dp38
g11
g12
(S'\x07\xdf\t\x10\x00\x00\x00\x00\x00\x00'
p39
tp40
Rp41
sg16
I2
sNtp42
a((dp43
g11
g12
(S'\x07\xdf\t\x11\x00\x00\x00\x00\x00\x00'
p44
tp45
Rp46
sg16
I3
sNtp47
asS'_DataTable__columns'
p48
(lp49
(dp50
S'container'
p51
S'dict'
p52
sg6
(dp53
sS'label'
p54
g16
sS'depth'
p55
I0
sS'type'
p56
S'number'
p57
sS'id'
p58
g16
sa(dp59
g51
g52
sg6
(dp60
sg54
S'Samples'
p61
sg55
I0
sg56
S'number'
p62
sg58
S'Samples'
p63
sa(dp64
g51
g52
sg6
(dp65
sg54
S'Timestamp'
p66
sg55
I0
sg56
S'datetime'
p67
sg58
g11
sa(dp68
g51
g52
sg6
(dp69
sg54
S'Count'
p70
sg55
I0
sg56
S'string'
p71
sg58
S'Unit'
p72
sasb(lp73
g11
ag16
atp74
.