(ccopy_reg
_reconstructor
p0
(cgviz_api
DataTable
p1
c__builtin__
object
p2
Ntp3
Rp4
(dp5
S'custom_properties'
p6
(dp7
sS'_DataTable__data'
p8
(lp9
((dp10
S'Files'
p11
I1
sS'Timestamp'
p12
cdatetime
datetime
p13
(S'\x07\xdf\t\x0b\x00\x00\x00\x00\x00\x00'
p14
tp15
Rp16
sNtp17
a((dp18
g11
I0
sg12
g13
(S'\x07\xdf\t\x0c\x00\x00\x00\x00\x00\x00'
p19
tp20
Rp21
sNtp22
a((dp23
g11
I0
sg12
g13
(S'\x07\xdf\t\r\x00\x00\x00\x00\x00\x00'
p24
tp25
Rp26
sNtp27
a((dp28
g11
I2
sg12
g13
(S'\x07\xdf\t\x0e\x00\x00\x00\x00\x00\x00'
p29
tp30
Rp31
sNtp32
a((dp33
g11
I0
sg12
g13
(S'\x07\xdf\t\x0f\x00\x00\x00\x00\x00\x00'
p34
tp35
Rp36
sNtp37
a((dp38
g11
I0
sg12
g13
(S'\x07\xdf\t\x10\x00\x00\x00\x00\x00\x00'
p39
tp40
Rp41
sNtp42
a((dp43
g11
I2
sg12
g13
(S'\x07\xdf\t\x11\x00\x00\x00\x00\x00\x00'
p44
tp45
Rp46
sNtp47
asS'_DataTable__columns'
p48
(lp49
(dp50
S'container'
p51
S'dict'
p52
sg6
(dp53
sS'label'
p54
g11
sS'depth'
p55
I0
sS'type'
p56
S'number'
p57
sS'id'
p58
g11
sa(dp59
g51
g52
sg6
(dp60
sg54
S'Samples'
p61
sg55
I0
sg56
S'number'
p62
sg58
S'Samples'
p63
sa(dp64
g51
g52
sg6
(dp65
sg54
S'Timestamp'
p66
sg55
I0
sg56
S'datetime'
p67
sg58
g12
sa(dp68
g51
g52
sg6
(dp69
sg54
S'Count'
p70
sg55
I0
sg56
S'string'
p71
sg58
S'Unit'
p72
sasb(lp73
g12
ag11
atp74
.