S'{"pushed_at": "2014-09-08 11:12:04", "num_issues": 0, "num_forks": 0, "name": "Biers", "num_branches": 1, "num_watchers": 0, "created_at": "2014-05-19 14:18:12", "num_pulls": 0, "num_downloads": 0}'
p0
.