S'{"pushed_at": "2013-11-05 20:32:55", "num_issues": 0, "num_forks": 0, "name": "BPPalign", "num_branches": 1, "num_watchers": 0, "created_at": "2013-11-05 16:25:53", "num_pulls": 0, "num_downloads": 0}'
p0
.