S'{"pushed_at": "2014-07-15 13:06:37", "num_issues": 0, "num_forks": 0, "name": "DeepChemicalProfiling", "num_branches": 1, "num_watchers": 1, "created_at": "2013-05-20 12:43:45", "num_pulls": 0, "num_downloads": 0}'
p0
.