S'{"pushed_at": "2015-09-02 16:26:28", "num_issues": 0, "num_forks": 0, "name": "MaP2D", "num_branches": 3, "num_watchers": 0, "created_at": "2015-04-10 23:29:41", "num_pulls": 0, "num_downloads": 0}'
p0
.