S'{"pushed_at": "2015-07-23 17:32:00", "num_issues": 0, "num_forks": 0, "name": "map_seeker", "num_branches": 3, "num_watchers": 0, "created_at": "2013-10-28 14:54:05", "num_pulls": 0, "num_downloads": 0}'
p0
.