S'{"pushed_at": "2014-10-11 12:18:56", "num_issues": 0, "num_forks": 0, "name": "mpFRET", "num_branches": 1, "num_watchers": 0, "created_at": "2014-09-10 09:02:11", "num_pulls": 0, "num_downloads": 0}'
p0
.