S'{"pushed_at": "2014-12-10 09:25:31", "num_issues": 0, "num_forks": 0, "name": "Primerize", "num_branches": 1, "num_watchers": 1, "created_at": "2013-10-17 14:50:23", "num_pulls": 0, "num_downloads": 0}'
p0
.