S'{"pushed_at": "2015-07-20 11:07:30", "num_issues": 0, "num_forks": 0, "name": "Pymol_DasLab", "num_branches": 2, "num_watchers": 0, "created_at": "2013-05-28 06:36:25", "num_pulls": 0, "num_downloads": 0}'
p0
.