S'{"pushed_at": "2015-07-07 17:34:04", "num_issues": 0, "num_forks": 0, "name": "REEFFIT", "num_branches": 2, "num_watchers": 0, "created_at": "2013-10-28 14:29:01", "num_pulls": 0, "num_downloads": 0}'
p0
.