S'{"pushed_at": "2013-05-17 18:20:29", "num_issues": 0, "num_forks": 0, "name": "RosettaModelingTutorial", "num_branches": 1, "num_watchers": 0, "created_at": "2013-05-14 17:09:30", "num_pulls": 0, "num_downloads": 0}'
p0
.