S'{"pushed_at": "2015-09-04 12:51:53", "num_issues": 0, "num_forks": 0, "name": "RW3D", "num_branches": 8, "num_watchers": 1, "created_at": "2015-08-04 16:52:36", "num_pulls": 0, "num_downloads": 0}'
p0
.