(ccopy_reg
_reconstructor
p0
(cgviz_api
DataTable
p1
c__builtin__
object
p2
Ntp3
Rp4
(dp5
S'custom_properties'
p6
(dp7
sS'_DataTable__data'
p8
(lp9
((dp10
S'Deletions'
p11
I-1575
sS'Timestamp'
p12
cdatetime
datetime
p13
(S'\x07\xdf\x08\x02\x00\x00\x00\x00\x00\x00'
p14
tp15
Rp16
sS'Additions'
p17
I3049
sNtp18
a((dp19
g11
I-410
sg12
g13
(S'\x07\xdf\x08\t\x00\x00\x00\x00\x00\x00'
p20
tp21
Rp22
sg17
I2491
sNtp23
a((dp24
g11
I-208
sg12
g13
(S'\x07\xdf\x08\x10\x00\x00\x00\x00\x00\x00'
p25
tp26
Rp27
sg17
I1097
sNtp28
a((dp29
g11
I-273
sg12
g13
(S'\x07\xdf\x08\x17\x00\x00\x00\x00\x00\x00'
p30
tp31
Rp32
sg17
I509
sNtp33
a((dp34
g11
I-26
sg12
g13
(S'\x07\xdf\x08\x1e\x00\x00\x00\x00\x00\x00'
p35
tp36
Rp37
sg17
I202
sNtp38
a((dp39
g11
I0
sg12
g13
(S'\x07\xdf\t\x06\x00\x00\x00\x00\x00\x00'
p40
tp41
Rp42
sg17
I0
sNtp43
a((dp44
g11
I0
sg12
g13
(S'\x07\xdf\t\r\x00\x00\x00\x00\x00\x00'
p45
tp46
Rp47
sg17
I0
sNtp48
asS'_DataTable__columns'
p49
(lp50
(dp51
S'container'
p52
S'dict'
p53
sg6
(dp54
sS'label'
p55
g17
sS'depth'
p56
I0
sS'type'
p57
S'number'
p58
sS'id'
p59
g17
sa(dp60
g52
g53
sg6
(dp61
sg55
g11
sg56
I0
sg57
S'number'
p62
sg59
g11
sa(dp63
g52
g53
sg6
(dp64
sg55
S'Samples'
p65
sg56
I0
sg57
S'number'
p66
sg59
S'Samples'
p67
sa(dp68
g52
g53
sg6
(dp69
sg55
S'Timestamp'
p70
sg56
I0
sg57
S'datetime'
p71
sg59
g12
sa(dp72
g52
g53
sg6
(dp73
sg55
S'Count'
p74
sg56
I0
sg57
S'string'
p75
sg59
S'Unit'
p76
sasb(lp77
g12
ag17
ag11
atp78
.