S'{"pushed_at": "2015-08-09 18:36:25", "num_issues": 0, "num_forks": 0, "name": "Server_RMDB", "num_branches": 1, "num_watchers": 0, "created_at": "2014-11-07 13:19:02", "num_pulls": 0, "num_downloads": 0}'
p0
.