S'{"pushed_at": "2015-09-17 19:32:04", "num_issues": 0, "num_forks": 0, "name": "Server_DasLab", "num_branches": 1, "num_watchers": 0, "created_at": "2015-06-09 14:26:22", "num_pulls": 0, "num_downloads": 0}'
p0
.