S'{"pushed_at": "2015-07-25 22:23:44", "num_issues": 0, "num_forks": 0, "name": "Server_Primerize", "num_branches": 1, "num_watchers": 0, "created_at": "2014-11-18 11:16:36", "num_pulls": 0, "num_downloads": 0}'
p0
.