S'{"pushed_at": "2015-07-20 14:44:25", "num_issues": 2, "num_forks": 0, "name": "stepwise_benchmark", "num_branches": 8, "num_watchers": 1, "created_at": "2014-09-09 11:34:51", "num_pulls": 0, "num_downloads": 0}'
p0
.