(ccopy_reg
_reconstructor
p0
(cgviz_api
DataTable
p1
c__builtin__
object
p2
Ntp3
Rp4
(dp5
S'custom_properties'
p6
(dp7
sS'_DataTable__data'
p8
(lp9
((dp10
S'Files'
p11
I0
sS'Timestamp'
p12
cdatetime
datetime
p13
(S'\x07\xdf\t\n\x00\x00\x00\x00\x00\x00'
p14
cpytz
_p
p15
(S'America/Los_Angeles'
p16
I-25200
I3600
S'PDT'
p17
tp18
Rp19
tp20
Rp21
sNtp22
a((dp23
g11
I12
sg12
g13
(S'\x07\xdf\t\x0b\x00\x00\x00\x00\x00\x00'
p24
g19
tp25
Rp26
sNtp27
a((dp28
g11
I131
sg12
g13
(S'\x07\xdf\t\x0c\x00\x00\x00\x00\x00\x00'
p29
g19
tp30
Rp31
sNtp32
a((dp33
g11
I0
sg12
g13
(S'\x07\xdf\t\r\x00\x00\x00\x00\x00\x00'
p34
g19
tp35
Rp36
sNtp37
a((dp38
g11
I0
sg12
g13
(S'\x07\xdf\t\x0e\x00\x00\x00\x00\x00\x00'
p39
g19
tp40
Rp41
sNtp42
a((dp43
g11
I0
sg12
g13
(S'\x07\xdf\t\x0f\x00\x00\x00\x00\x00\x00'
p44
g19
tp45
Rp46
sNtp47
a((dp48
g11
I0
sg12
g13
(S'\x07\xdf\t\x10\x00\x00\x00\x00\x00\x00'
p49
g19
tp50
Rp51
sNtp52
a((dp53
g11
I4
sg12
g13
(S'\x07\xdf\t\x11\x00\x00\x00\x00\x00\x00'
p54
g19
tp55
Rp56
sNtp57
asS'_DataTable__columns'
p58
(lp59
(dp60
S'container'
p61
S'dict'
p62
sg6
(dp63
sS'label'
p64
g11
sS'depth'
p65
I0
sS'type'
p66
S'number'
p67
sS'id'
p68
g11
sa(dp69
g61
g62
sg6
(dp70
sg64
S'Samples'
p71
sg65
I0
sg66
S'number'
p72
sg68
S'Samples'
p73
sa(dp74
g61
g62
sg6
(dp75
sg64
S'Timestamp'
p76
sg65
I0
sg66
S'datetime'
p77
sg68
g12
sa(dp78
g61
g62
sg6
(dp79
sg64
S'Count'
p80
sg65
I0
sg66
S'string'
p81
sg68
S'Unit'
p82
sasb(lp83
g12
ag11
atp84
.