(dp0
S'this'
p1
(S'Sep 18'
p2
S'GM'
p3
S'Siqi'
p4
S''
p5
tp6
sS'last'
p7
(S'Sep 11'
p8
S'N/A'
p9
g5
S'Rhiju Out of Town'
p10
tp11
sS'tp'
p12
S'[Friday @ 9:30am - 12:00pm @ B402] '
p13
sS'next'
p14
(S'Sep 25'
p15
S'GM'
p16
S'Kalli'
p17
g5
tp18
s.