(ccopy_reg
_reconstructor
p0
(cgviz_api
DataTable
p1
c__builtin__
object
p2
Ntp3
Rp4
(dp5
S'custom_properties'
p6
(dp7
sS'_DataTable__data'
p8
(lp9
((dp10
S'Timestamp'
p11
cdatetime
datetime
p12
(S'\x07\xdf\t\x10\x14\x03\x00\x00\x00\x00'
p13
cpytz
_p
p14
(S'America/Los_Angeles'
p15
I-25200
I3600
S'PDT'
p16
tp17
Rp18
tp19
Rp20
sS'VolumeReadBytesRate'
p21
I0
sS'VolumeWriteBytesRate'
p22
I0
sS'Unit'
p23
S'Bytes'
p24
sNtp25
a((dp26
g11
g12
(S'\x07\xdf\t\x10\x15\x03\x00\x00\x00\x00'
p27
g18
tp28
Rp29
sg21
I0
sg22
I0
sg23
g24
sNtp30
a((dp31
g11
g12
(S'\x07\xdf\t\x10\x16\x03\x00\x00\x00\x00'
p32
g18
tp33
Rp34
sg21
I0
sg22
I0
sg23
g24
sNtp35
a((dp36
g11
g12
(S'\x07\xdf\t\x10\x17\x03\x00\x00\x00\x00'
p37
g18
tp38
Rp39
sg21
I0
sg22
I0
sg23
g24
sNtp40
a((dp41
g11
g12
(S'\x07\xdf\t\x11\x00\x03\x00\x00\x00\x00'
p42
g18
tp43
Rp44
sg21
I0
sg22
I0
sg23
g24
sNtp45
a((dp46
g11
g12
(S'\x07\xdf\t\x11\x01\x03\x00\x00\x00\x00'
p47
g18
tp48
Rp49
sg21
I0
sg22
I0
sg23
g24
sNtp50
a((dp51
g11
g12
(S'\x07\xdf\t\x11\x02\x03\x00\x00\x00\x00'
p52
g18
tp53
Rp54
sg21
I0
sg22
I0
sg23
g24
sNtp55
a((dp56
g11
g12
(S'\x07\xdf\t\x11\x03\x03\x00\x00\x00\x00'
p57
g18
tp58
Rp59
sg21
I0
sg22
I0
sg23
g24
sNtp60
a((dp61
g11
g12
(S'\x07\xdf\t\x11\x04\x03\x00\x00\x00\x00'
p62
g18
tp63
Rp64
sg21
I0
sg22
I0
sg23
g24
sNtp65
a((dp66
g11
g12
(S'\x07\xdf\t\x11\x05\x03\x00\x00\x00\x00'
p67
g18
tp68
Rp69
sg21
I0
sg22
I0
sg23
g24
sNtp70
a((dp71
g11
g12
(S'\x07\xdf\t\x11\x06\x03\x00\x00\x00\x00'
p72
g18
tp73
Rp74
sg21
I0
sg22
I0
sg23
g24
sNtp75
a((dp76
g11
g12
(S'\x07\xdf\t\x11\x07\x03\x00\x00\x00\x00'
p77
g18
tp78
Rp79
sg21
I0
sg22
I0
sg23
g24
sNtp80
a((dp81
g11
g12
(S'\x07\xdf\t\x11\x08\x03\x00\x00\x00\x00'
p82
g18
tp83
Rp84
sg21
I0
sg22
I0
sg23
g24
sNtp85
a((dp86
g11
g12
(S'\x07\xdf\t\x11\t\x03\x00\x00\x00\x00'
p87
g18
tp88
Rp89
sg21
I0
sg22
I0
sg23
g24
sNtp90
a((dp91
g11
g12
(S'\x07\xdf\t\x11\n\x03\x00\x00\x00\x00'
p92
g18
tp93
Rp94
sg21
I0
sg22
I0
sg23
g24
sNtp95
a((dp96
g11
g12
(S'\x07\xdf\t\x11\x0b\x03\x00\x00\x00\x00'
p97
g18
tp98
Rp99
sg21
I0
sg22
I0
sg23
g24
sNtp100
a((dp101
g11
g12
(S'\x07\xdf\t\x11\x0c\x03\x00\x00\x00\x00'
p102
g18
tp103
Rp104
sg21
I0
sg22
I0
sg23
g24
sNtp105
a((dp106
g11
g12
(S'\x07\xdf\t\x11\r\x03\x00\x00\x00\x00'
p107
g18
tp108
Rp109
sg21
I0
sg22
I0
sg23
g24
sNtp110
a((dp111
g11
g12
(S'\x07\xdf\t\x11\x0e\x03\x00\x00\x00\x00'
p112
g18
tp113
Rp114
sg21
I0
sg22
I0
sg23
g24
sNtp115
a((dp116
g11
g12
(S'\x07\xdf\t\x11\x0f\x03\x00\x00\x00\x00'
p117
g18
tp118
Rp119
sg21
I0
sg22
I0
sg23
g24
sNtp120
a((dp121
g11
g12
(S'\x07\xdf\t\x11\x10\x03\x00\x00\x00\x00'
p122
g18
tp123
Rp124
sg21
I0
sg22
I0
sg23
g24
sNtp125
a((dp126
g11
g12
(S'\x07\xdf\t\x11\x11\x03\x00\x00\x00\x00'
p127
g18
tp128
Rp129
sg21
I0
sg22
I0
sg23
g24
sNtp130
a((dp131
g11
g12
(S'\x07\xdf\t\x11\x12\x03\x00\x00\x00\x00'
p132
g18
tp133
Rp134
sg21
I0
sg22
I0
sg23
g24
sNtp135
a((dp136
g11
g12
(S'\x07\xdf\t\x11\x13\x03\x00\x00\x00\x00'
p137
g18
tp138
Rp139
sg21
I0
sg22
I0
sg23
g24
sNtp140
asS'_DataTable__columns'
p141
(lp142
(dp143
S'container'
p144
S'dict'
p145
sg6
(dp146
sS'label'
p147
S'Samples'
p148
sS'depth'
p149
I0
sS'type'
p150
S'number'
p151
sS'id'
p152
g148
sa(dp153
g144
g145
sg6
(dp154
sg147
S'Timestamp'
p155
sg149
I0
sg150
S'datetime'
p156
sg152
g11
sa(dp157
g144
g145
sg6
(dp158
sg147
g24
sg149
I0
sg150
S'string'
p159
sg152
g23
sa(dp160
g144
g145
sg6
(dp161
sg147
S'VolumeReadBytesRate'
p162
sg149
I0
sg150
S'number'
p163
sg152
g21
sa(dp164
g144
g145
sg6
(dp165
sg147
S'VolumeWriteBytesRate'
p166
sg149
I0
sg150
S'number'
p167
sg152
g22
sasb(lp168
g11
aS'VolumeWriteBytesRate'
p169
aS'VolumeReadBytesRate'
p170
atp171
.