(ccopy_reg
_reconstructor
p0
(cgviz_api
DataTable
p1
c__builtin__
object
p2
Ntp3
Rp4
(dp5
S'custom_properties'
p6
(dp7
sS'_DataTable__data'
p8
(lp9
((dp10
S'Timestamp'
p11
cdatetime
datetime
p12
(S'\x07\xdf\t\x10\x14\x03\x00\x00\x00\x00'
p13
cpytz
_p
p14
(S'America/Los_Angeles'
p15
I-25200
I3600
S'PDT'
p16
tp17
Rp18
tp19
Rp20
sS'VolumeReadBytesRate'
p21
I0
sS'VolumeWriteBytesRate'
p22
F0.2811111111111111
sS'Unit'
p23
VBytes
p24
sNtp25
a((dp26
g11
g12
(S'\x07\xdf\t\x10\x15\x03\x00\x00\x00\x00'
p27
g18
tp28
Rp29
sg21
I0
sg22
F0.2866666666666667
sg23
VBytes
p30
sNtp31
a((dp32
g11
g12
(S'\x07\xdf\t\x10\x16\x03\x00\x00\x00\x00'
p33
g18
tp34
Rp35
sg21
I0
sg22
F0.27444444444444444
sg23
VBytes
p36
sNtp37
a((dp38
g11
g12
(S'\x07\xdf\t\x10\x17\x03\x00\x00\x00\x00'
p39
g18
tp40
Rp41
sg21
I0
sg22
F20.355555555555554
sg23
VBytes
p42
sNtp43
a((dp44
g11
g12
(S'\x07\xdf\t\x11\x00\x03\x00\x00\x00\x00'
p45
g18
tp46
Rp47
sg21
I0
sg22
F0.42333333333333334
sg23
VBytes
p48
sNtp49
a((dp50
g11
g12
(S'\x07\xdf\t\x11\x01\x03\x00\x00\x00\x00'
p51
g18
tp52
Rp53
sg21
I0
sg22
F0.2588888888888889
sg23
VBytes
p54
sNtp55
a((dp56
g11
g12
(S'\x07\xdf\t\x11\x02\x03\x00\x00\x00\x00'
p57
g18
tp58
Rp59
sg21
I0
sg22
F0.32
sg23
VBytes
p60
sNtp61
a((dp62
g11
g12
(S'\x07\xdf\t\x11\x03\x03\x00\x00\x00\x00'
p63
g18
tp64
Rp65
sg21
I0
sg22
F0.3055555555555556
sg23
VBytes
p66
sNtp67
a((dp68
g11
g12
(S'\x07\xdf\t\x11\x04\x03\x00\x00\x00\x00'
p69
g18
tp70
Rp71
sg21
F0.0011111111111111111
sg22
F0.2677777777777778
sg23
VBytes
p72
sNtp73
a((dp74
g11
g12
(S'\x07\xdf\t\x11\x05\x03\x00\x00\x00\x00'
p75
g18
tp76
Rp77
sg21
I0
sg22
F0.3611111111111111
sg23
VBytes
p78
sNtp79
a((dp80
g11
g12
(S'\x07\xdf\t\x11\x06\x03\x00\x00\x00\x00'
p81
g18
tp82
Rp83
sg21
I0
sg22
F0.28555555555555556
sg23
VBytes
p84
sNtp85
a((dp86
g11
g12
(S'\x07\xdf\t\x11\x07\x03\x00\x00\x00\x00'
p87
g18
tp88
Rp89
sg21
I0
sg22
F0.2822222222222222
sg23
VBytes
p90
sNtp91
a((dp92
g11
g12
(S'\x07\xdf\t\x11\x08\x03\x00\x00\x00\x00'
p93
g18
tp94
Rp95
sg21
I0
sg22
F0.29333333333333333
sg23
VBytes
p96
sNtp97
a((dp98
g11
g12
(S'\x07\xdf\t\x11\t\x03\x00\x00\x00\x00'
p99
g18
tp100
Rp101
sg21
I0
sg22
F0.5144444444444445
sg23
VBytes
p102
sNtp103
a((dp104
g11
g12
(S'\x07\xdf\t\x11\n\x03\x00\x00\x00\x00'
p105
g18
tp106
Rp107
sg21
I0
sg22
F0.5166666666666667
sg23
VBytes
p108
sNtp109
a((dp110
g11
g12
(S'\x07\xdf\t\x11\x0b\x03\x00\x00\x00\x00'
p111
g18
tp112
Rp113
sg21
F2.433333333333333
sg22
F0.27111111111111114
sg23
VBytes
p114
sNtp115
a((dp116
g11
g12
(S'\x07\xdf\t\x11\x0c\x03\x00\x00\x00\x00'
p117
g18
tp118
Rp119
sg21
I0
sg22
F0.38666666666666666
sg23
VBytes
p120
sNtp121
a((dp122
g11
g12
(S'\x07\xdf\t\x11\r\x03\x00\x00\x00\x00'
p123
g18
tp124
Rp125
sg21
I0
sg22
F2.24
sg23
VBytes
p126
sNtp127
a((dp128
g11
g12
(S'\x07\xdf\t\x11\x0e\x03\x00\x00\x00\x00'
p129
g18
tp130
Rp131
sg21
F1.1044444444444443
sg22
F0.2677777777777778
sg23
VBytes
p132
sNtp133
a((dp134
g11
g12
(S'\x07\xdf\t\x11\x0f\x03\x00\x00\x00\x00'
p135
g18
tp136
Rp137
sg21
I0
sg22
F0.3688888888888889
sg23
VBytes
p138
sNtp139
a((dp140
g11
g12
(S'\x07\xdf\t\x11\x10\x03\x00\x00\x00\x00'
p141
g18
tp142
Rp143
sg21
I0
sg22
F0.35888888888888887
sg23
VBytes
p144
sNtp145
a((dp146
g11
g12
(S'\x07\xdf\t\x11\x11\x03\x00\x00\x00\x00'
p147
g18
tp148
Rp149
sg21
I0
sg22
F0.25333333333333335
sg23
VBytes
p150
sNtp151
a((dp152
g11
g12
(S'\x07\xdf\t\x11\x12\x03\x00\x00\x00\x00'
p153
g18
tp154
Rp155
sg21
I0
sg22
F0.2788888888888889
sg23
VBytes
p156
sNtp157
a((dp158
g11
g12
(S'\x07\xdf\t\x11\x13\x03\x00\x00\x00\x00'
p159
g18
tp160
Rp161
sg21
I0
sg22
F0.2411111111111111
sg23
VBytes
p162
sNtp163
asS'_DataTable__columns'
p164
(lp165
(dp166
S'container'
p167
S'dict'
p168
sg6
(dp169
sS'label'
p170
S'Samples'
p171
sS'depth'
p172
I0
sS'type'
p173
S'number'
p174
sS'id'
p175
g171
sa(dp176
g167
g168
sg6
(dp177
sg170
S'Timestamp'
p178
sg172
I0
sg173
S'datetime'
p179
sg175
g11
sa(dp180
g167
g168
sg6
(dp181
sg170
S'Bytes'
p182
sg172
I0
sg173
S'string'
p183
sg175
g23
sa(dp184
g167
g168
sg6
(dp185
sg170
S'VolumeReadBytesRate'
p186
sg172
I0
sg173
S'number'
p187
sg175
g21
sa(dp188
g167
g168
sg6
(dp189
sg170
S'VolumeWriteBytesRate'
p190
sg172
I0
sg173
S'number'
p191
sg175
g22
sasb(lp192
g11
aS'VolumeWriteBytesRate'
p193
aS'VolumeReadBytesRate'
p194
atp195
.