(ccopy_reg
_reconstructor
p0
(cgviz_api
DataTable
p1
c__builtin__
object
p2
Ntp3
Rp4
(dp5
S'custom_properties'
p6
(dp7
sS'_DataTable__data'
p8
(lp9
((dp10
S'Timestamp'
p11
cdatetime
datetime
p12
(S'\x07\xdf\t\x10\x14\x03\x00\x00\x00\x00'
p13
cpytz
_p
p14
(S'America/Los_Angeles'
p15
I-25200
I3600
S'PDT'
p16
tp17
Rp18
tp19
Rp20
sS'NetworkInRate'
p21
F0.06302110460069445
sS'Unit'
p22
VBytes
p23
sS'NetworkOutRate'
p24
F0.14333224826388888
sNtp25
a((dp26
g11
g12
(S'\x07\xdf\t\x10\x15\x03\x00\x00\x00\x00'
p27
g18
tp28
Rp29
sg21
F0.06345865885416667
sg22
VBytes
p30
sg24
F0.14543402777777778
sNtp31
a((dp32
g11
g12
(S'\x07\xdf\t\x10\x16\x03\x00\x00\x00\x00'
p33
g18
tp34
Rp35
sg21
F0.06588080512152777
sg22
VBytes
p36
sg24
F0.20171495225694444
sNtp37
a((dp38
g11
g12
(S'\x07\xdf\t\x10\x17\x03\x00\x00\x00\x00'
p39
g18
tp40
Rp41
sg21
F0.10879774305555556
sg22
VBytes
p42
sg24
F0.2154901801215278
sNtp43
a((dp44
g11
g12
(S'\x07\xdf\t\x11\x00\x03\x00\x00\x00\x00'
p45
g18
tp46
Rp47
sg21
F0.08647352430555555
sg22
VBytes
p48
sg24
F0.19269775390625
sNtp49
a((dp50
g11
g12
(S'\x07\xdf\t\x11\x01\x03\x00\x00\x00\x00'
p51
g18
tp52
Rp53
sg21
F0.06340467664930556
sg22
VBytes
p54
sg24
F0.14361382378472223
sNtp55
a((dp56
g11
g12
(S'\x07\xdf\t\x11\x02\x03\x00\x00\x00\x00'
p57
g18
tp58
Rp59
sg21
F0.06242241753472222
sg22
VBytes
p60
sg24
F0.14061333550347221
sNtp61
a((dp62
g11
g12
(S'\x07\xdf\t\x11\x03\x03\x00\x00\x00\x00'
p63
g18
tp64
Rp65
sg21
F0.6853502061631944
sg22
VBytes
p66
sg24
F1.3037641059027778
sNtp67
a((dp68
g11
g12
(S'\x07\xdf\t\x11\x04\x03\x00\x00\x00\x00'
p69
g18
tp70
Rp71
sg21
F0.5608620876736111
sg22
VBytes
p72
sg24
F1.0847311740451389
sNtp73
a((dp74
g11
g12
(S'\x07\xdf\t\x11\x05\x03\x00\x00\x00\x00'
p75
g18
tp76
Rp77
sg21
F0.06780164930555556
sg22
VBytes
p78
sg24
F0.1584377712673611
sNtp79
a((dp80
g11
g12
(S'\x07\xdf\t\x11\x06\x03\x00\x00\x00\x00'
p81
g18
tp82
Rp83
sg21
F0.06337293836805556
sg22
VBytes
p84
sg24
F0.1436699761284722
sNtp85
a((dp86
g11
g12
(S'\x07\xdf\t\x11\x07\x03\x00\x00\x00\x00'
p87
g18
tp88
Rp89
sg21
F0.07077880859375
sg22
VBytes
p90
sg24
F0.35099256727430556
sNtp91
a((dp92
g11
g12
(S'\x07\xdf\t\x11\x08\x03\x00\x00\x00\x00'
p93
g18
tp94
Rp95
sg21
F0.06917778862847222
sg22
VBytes
p96
sg24
F0.1536593967013889
sNtp97
a((dp98
g11
g12
(S'\x07\xdf\t\x11\t\x03\x00\x00\x00\x00'
p99
g18
tp100
Rp101
sg21
F0.0638302951388889
sg22
VBytes
p102
sg24
F0.14475640190972222
sNtp103
a((dp104
g11
g12
(S'\x07\xdf\t\x11\n\x03\x00\x00\x00\x00'
p105
g18
tp106
Rp107
sg21
F0.06356499565972222
sg22
VBytes
p108
sg24
F0.14622260199652778
sNtp109
a((dp110
g11
g12
(S'\x07\xdf\t\x11\x0b\x03\x00\x00\x00\x00'
p111
g18
tp112
Rp113
sg21
F0.06278076171875
sg22
VBytes
p114
sg24
F0.14321940104166667
sNtp115
a((dp116
g11
g12
(S'\x07\xdf\t\x11\x0c\x03\x00\x00\x00\x00'
p117
g18
tp118
Rp119
sg21
F0.06403510199652777
sg22
VBytes
p120
sg24
F0.1445657009548611
sNtp121
a((dp122
g11
g12
(S'\x07\xdf\t\x11\r\x03\x00\x00\x00\x00'
p123
g18
tp124
Rp125
sg21
F0.06296468098958333
sg22
VBytes
p126
sg24
F0.14342692057291667
sNtp127
a((dp128
g11
g12
(S'\x07\xdf\t\x11\x0e\x03\x00\x00\x00\x00'
p129
g18
tp130
Rp131
sg21
F0.07739827473958333
sg22
VBytes
p132
sg24
F0.1853122287326389
sNtp133
a((dp134
g11
g12
(S'\x07\xdf\t\x11\x0f\x03\x00\x00\x00\x00'
p135
g18
tp136
Rp137
sg21
F0.06863444010416667
sg22
VBytes
p138
sg24
F0.15886420355902778
sNtp139
a((dp140
g11
g12
(S'\x07\xdf\t\x11\x10\x03\x00\x00\x00\x00'
p141
g18
tp142
Rp143
sg21
F0.06297064887152778
sg22
VBytes
p144
sg24
F0.14327962239583333
sNtp145
a((dp146
g11
g12
(S'\x07\xdf\t\x11\x11\x03\x00\x00\x00\x00'
p147
g18
tp148
Rp149
sg21
F0.06612874348958334
sg22
VBytes
p150
sg24
F0.19278184678819443
sNtp151
a((dp152
g11
g12
(S'\x07\xdf\t\x11\x12\x03\x00\x00\x00\x00'
p153
g18
tp154
Rp155
sg21
F0.06350287543402777
sg22
VBytes
p156
sg24
F0.14575710720486112
sNtp157
a((dp158
g11
g12
(S'\x07\xdf\t\x11\x13\x03\x00\x00\x00\x00'
p159
g18
tp160
Rp161
sg21
F0.06207004123263889
sg22
VBytes
p162
sg24
F0.14191813151041666
sNtp163
asS'_DataTable__columns'
p164
(lp165
(dp166
S'container'
p167
S'dict'
p168
sg6
(dp169
sS'label'
p170
S'NetworkInRate'
p171
sS'depth'
p172
I0
sS'type'
p173
S'number'
p174
sS'id'
p175
g21
sa(dp176
g167
g168
sg6
(dp177
sg170
S'NetworkOutRate'
p178
sg172
I0
sg173
S'number'
p179
sg175
g24
sa(dp180
g167
g168
sg6
(dp181
sg170
S'Samples'
p182
sg172
I0
sg173
S'number'
p183
sg175
g182
sa(dp184
g167
g168
sg6
(dp185
sg170
S'Timestamp'
p186
sg172
I0
sg173
S'datetime'
p187
sg175
g11
sa(dp188
g167
g168
sg6
(dp189
sg170
S'Bytes'
p190
sg172
I0
sg173
S'string'
p191
sg175
g22
sasb(lp192
g11
aS'NetworkInRate'
p193
aS'NetworkOutRate'
p194
atp195
.