(ccopy_reg
_reconstructor
p0
(cgviz_api
DataTable
p1
c__builtin__
object
p2
Ntp3
Rp4
(dp5
S'custom_properties'
p6
(dp7
sS'_DataTable__data'
p8
(lp9
((dp10
S'Timestamp'
p11
cdatetime
datetime
p12
(S'\x07\xdf\t\x10\x14\x03\x00\x00\x00\x00'
p13
cpytz
_p
p14
(S'America/Los_Angeles'
p15
I-25200
I3600
S'PDT'
p16
tp17
Rp18
tp19
Rp20
sS'NetworkInRate'
p21
F0.06298990885416667
sS'Unit'
p22
VBytes
p23
sS'NetworkOutRate'
p24
F0.08104627821180556
sNtp25
a((dp26
g11
g12
(S'\x07\xdf\t\x10\x15\x03\x00\x00\x00\x00'
p27
g18
tp28
Rp29
sg21
F0.06259901258680556
sg22
VBytes
p30
sg24
F0.08265950520833333
sNtp31
a((dp32
g11
g12
(S'\x07\xdf\t\x10\x16\x03\x00\x00\x00\x00'
p33
g18
tp34
Rp35
sg21
F0.06593695746527778
sg22
VBytes
p36
sg24
F0.20773546006944443
sNtp37
a((dp38
g11
g12
(S'\x07\xdf\t\x10\x17\x03\x00\x00\x00\x00'
p39
g18
tp40
Rp41
sg21
F0.8477522786458334
sg22
VBytes
p42
sg24
F0.09689995659722223
sNtp43
a((dp44
g11
g12
(S'\x07\xdf\t\x11\x00\x03\x00\x00\x00\x00'
p45
g18
tp46
Rp47
sg21
F0.08404541015625
sg22
VBytes
p48
sg24
F0.12110134548611111
sNtp49
a((dp50
g11
g12
(S'\x07\xdf\t\x11\x01\x03\x00\x00\x00\x00'
p51
g18
tp52
Rp53
sg21
F0.06203314887152778
sg22
VBytes
p54
sg24
F0.0818212890625
sNtp55
a((dp56
g11
g12
(S'\x07\xdf\t\x11\x02\x03\x00\x00\x00\x00'
p57
g18
tp58
Rp59
sg21
F0.06596354166666667
sg22
VBytes
p60
sg24
F0.09717936197916667
sNtp61
a((dp62
g11
g12
(S'\x07\xdf\t\x11\x03\x03\x00\x00\x00\x00'
p63
g18
tp64
Rp65
sg21
F0.06611545138888889
sg22
VBytes
p66
sg24
F0.09158067491319444
sNtp67
a((dp68
g11
g12
(S'\x07\xdf\t\x11\x04\x03\x00\x00\x00\x00'
p69
g18
tp70
Rp71
sg21
F0.06206136067708334
sg22
VBytes
p72
sg24
F0.07787000868055556
sNtp73
a((dp74
g11
g12
(S'\x07\xdf\t\x11\x05\x03\x00\x00\x00\x00'
p75
g18
tp76
Rp77
sg21
F0.06691053602430555
sg22
VBytes
p78
sg24
F0.15326280381944443
sNtp79
a((dp80
g11
g12
(S'\x07\xdf\t\x11\x06\x03\x00\x00\x00\x00'
p81
g18
tp82
Rp83
sg21
F0.06418674045138889
sg22
VBytes
p84
sg24
F0.08330078125
sNtp85
a((dp86
g11
g12
(S'\x07\xdf\t\x11\x07\x03\x00\x00\x00\x00'
p87
g18
tp88
Rp89
sg21
F0.06293212890625
sg22
VBytes
p90
sg24
F0.08076009114583334
sNtp91
a((dp92
g11
g12
(S'\x07\xdf\t\x11\x08\x03\x00\x00\x00\x00'
p93
g18
tp94
Rp95
sg21
F0.06369086371527778
sg22
VBytes
p96
sg24
F0.08800428602430556
sNtp97
a((dp98
g11
g12
(S'\x07\xdf\t\x11\t\x03\x00\x00\x00\x00'
p99
g18
tp100
Rp101
sg21
F0.10951958550347222
sg22
VBytes
p102
sg24
F0.19244032118055557
sNtp103
a((dp104
g11
g12
(S'\x07\xdf\t\x11\n\x03\x00\x00\x00\x00'
p105
g18
tp106
Rp107
sg21
F0.10720187717013889
sg22
VBytes
p108
sg24
F0.15215440538194444
sNtp109
a((dp110
g11
g12
(S'\x07\xdf\t\x11\x0b\x03\x00\x00\x00\x00'
p111
g18
tp112
Rp113
sg21
F0.06226318359375
sg22
VBytes
p114
sg24
F0.07887125651041667
sNtp115
a((dp116
g11
g12
(S'\x07\xdf\t\x11\x0c\x03\x00\x00\x00\x00'
p117
g18
tp118
Rp119
sg21
F0.06819390190972222
sg22
VBytes
p120
sg24
F0.23765706380208335
sNtp121
a((dp122
g11
g12
(S'\x07\xdf\t\x11\r\x03\x00\x00\x00\x00'
p123
g18
tp124
Rp125
sg21
F0.0859182400173611
sg22
VBytes
p126
sg24
F0.6436032443576389
sNtp127
a((dp128
g11
g12
(S'\x07\xdf\t\x11\x0e\x03\x00\x00\x00\x00'
p129
g18
tp130
Rp131
sg21
F0.061175401475694446
sg22
VBytes
p132
sg24
F0.08082166883680555
sNtp133
a((dp134
g11
g12
(S'\x07\xdf\t\x11\x0f\x03\x00\x00\x00\x00'
p135
g18
tp136
Rp137
sg21
F0.06768364800347222
sg22
VBytes
p138
sg24
F0.16327772352430556
sNtp139
a((dp140
g11
g12
(S'\x07\xdf\t\x11\x10\x03\x00\x00\x00\x00'
p141
g18
tp142
Rp143
sg21
F0.07019965277777777
sg22
VBytes
p144
sg24
F0.4549924045138889
sNtp145
a((dp146
g11
g12
(S'\x07\xdf\t\x11\x11\x03\x00\x00\x00\x00'
p147
g18
tp148
Rp149
sg21
F0.06216742621527778
sg22
VBytes
p150
sg24
F0.07442654079861111
sNtp151
a((dp152
g11
g12
(S'\x07\xdf\t\x11\x12\x03\x00\x00\x00\x00'
p153
g18
tp154
Rp155
sg21
F0.06237901475694444
sg22
VBytes
p156
sg24
F0.07422064887152778
sNtp157
a((dp158
g11
g12
(S'\x07\xdf\t\x11\x13\x03\x00\x00\x00\x00'
p159
g18
tp160
Rp161
sg21
F0.05674831814236111
sg22
VBytes
p162
sg24
F0.0761328125
sNtp163
asS'_DataTable__columns'
p164
(lp165
(dp166
S'container'
p167
S'dict'
p168
sg6
(dp169
sS'label'
p170
S'NetworkInRate'
p171
sS'depth'
p172
I0
sS'type'
p173
S'number'
p174
sS'id'
p175
g21
sa(dp176
g167
g168
sg6
(dp177
sg170
S'NetworkOutRate'
p178
sg172
I0
sg173
S'number'
p179
sg175
g24
sa(dp180
g167
g168
sg6
(dp181
sg170
S'Samples'
p182
sg172
I0
sg173
S'number'
p183
sg175
g182
sa(dp184
g167
g168
sg6
(dp185
sg170
S'Timestamp'
p186
sg172
I0
sg173
S'datetime'
p187
sg175
g11
sa(dp188
g167
g168
sg6
(dp189
sg170
S'Bytes'
p190
sg172
I0
sg173
S'string'
p191
sg175
g22
sasb(lp192
g11
aS'NetworkInRate'
p193
aS'NetworkOutRate'
p194
atp195
.