(ccopy_reg
_reconstructor
p0
(cgviz_api
DataTable
p1
c__builtin__
object
p2
Ntp3
Rp4
(dp5
S'custom_properties'
p6
(dp7
sS'_DataTable__data'
p8
(lp9
((dp10
S'Timestamp'
p11
cdatetime
datetime
p12
(S'\x07\xdf\t\x10\x14\x03\x00\x00\x00\x00'
p13
cpytz
_p
p14
(S'America/Los_Angeles'
p15
I-25200
I3600
S'PDT'
p16
tp17
Rp18
tp19
Rp20
sS'CPUUtilizationAverage'
p21
F0.06783333333333334
sS'Unit'
p22
VPercent
p23
sNtp24
a((dp25
g11
g12
(S'\x07\xdf\t\x10\x15\x03\x00\x00\x00\x00'
p26
g18
tp27
Rp28
sg21
F0.06233333333333334
sg22
VPercent
p29
sNtp30
a((dp31
g11
g12
(S'\x07\xdf\t\x10\x16\x03\x00\x00\x00\x00'
p32
g18
tp33
Rp34
sg21
F0.0805
sg22
VPercent
p35
sNtp36
a((dp37
g11
g12
(S'\x07\xdf\t\x10\x17\x03\x00\x00\x00\x00'
p38
g18
tp39
Rp40
sg21
F0.13883333333333334
sg22
VPercent
p41
sNtp42
a((dp43
g11
g12
(S'\x07\xdf\t\x11\x00\x03\x00\x00\x00\x00'
p44
g18
tp45
Rp46
sg21
F0.07616666666666667
sg22
VPercent
p47
sNtp48
a((dp49
g11
g12
(S'\x07\xdf\t\x11\x01\x03\x00\x00\x00\x00'
p50
g18
tp51
Rp52
sg21
F0.12000000000000001
sg22
VPercent
p53
sNtp54
a((dp55
g11
g12
(S'\x07\xdf\t\x11\x02\x03\x00\x00\x00\x00'
p56
g18
tp57
Rp58
sg21
F0.24816666666666667
sg22
VPercent
p59
sNtp60
a((dp61
g11
g12
(S'\x07\xdf\t\x11\x03\x03\x00\x00\x00\x00'
p62
g18
tp63
Rp64
sg21
F0.1275
sg22
VPercent
p65
sNtp66
a((dp67
g11
g12
(S'\x07\xdf\t\x11\x04\x03\x00\x00\x00\x00'
p68
g18
tp69
Rp70
sg21
F0.07483333333333334
sg22
VPercent
p71
sNtp72
a((dp73
g11
g12
(S'\x07\xdf\t\x11\x05\x03\x00\x00\x00\x00'
p74
g18
tp75
Rp76
sg21
F0.08216666666666667
sg22
VPercent
p77
sNtp78
a((dp79
g11
g12
(S'\x07\xdf\t\x11\x06\x03\x00\x00\x00\x00'
p80
g18
tp81
Rp82
sg21
F0.08066666666666666
sg22
VPercent
p83
sNtp84
a((dp85
g11
g12
(S'\x07\xdf\t\x11\x07\x03\x00\x00\x00\x00'
p86
g18
tp87
Rp88
sg21
F0.07033333333333334
sg22
VPercent
p89
sNtp90
a((dp91
g11
g12
(S'\x07\xdf\t\x11\x08\x03\x00\x00\x00\x00'
p92
g18
tp93
Rp94
sg21
F0.14100000000000001
sg22
VPercent
p95
sNtp96
a((dp97
g11
g12
(S'\x07\xdf\t\x11\t\x03\x00\x00\x00\x00'
p98
g18
tp99
Rp100
sg21
F0.08183333333333334
sg22
VPercent
p101
sNtp102
a((dp103
g11
g12
(S'\x07\xdf\t\x11\n\x03\x00\x00\x00\x00'
p104
g18
tp105
Rp106
sg21
F0.0885
sg22
VPercent
p107
sNtp108
a((dp109
g11
g12
(S'\x07\xdf\t\x11\x0b\x03\x00\x00\x00\x00'
p110
g18
tp111
Rp112
sg21
F0.08183333333333334
sg22
VPercent
p113
sNtp114
a((dp115
g11
g12
(S'\x07\xdf\t\x11\x0c\x03\x00\x00\x00\x00'
p116
g18
tp117
Rp118
sg21
F0.09966666666666667
sg22
VPercent
p119
sNtp120
a((dp121
g11
g12
(S'\x07\xdf\t\x11\r\x03\x00\x00\x00\x00'
p122
g18
tp123
Rp124
sg21
F0.418
sg22
VPercent
p125
sNtp126
a((dp127
g11
g12
(S'\x07\xdf\t\x11\x0e\x03\x00\x00\x00\x00'
p128
g18
tp129
Rp130
sg21
F0.10016666666666667
sg22
VPercent
p131
sNtp132
a((dp133
g11
g12
(S'\x07\xdf\t\x11\x0f\x03\x00\x00\x00\x00'
p134
g18
tp135
Rp136
sg21
F0.08166666666666668
sg22
VPercent
p137
sNtp138
a((dp139
g11
g12
(S'\x07\xdf\t\x11\x10\x03\x00\x00\x00\x00'
p140
g18
tp141
Rp142
sg21
F0.10500000000000001
sg22
VPercent
p143
sNtp144
a((dp145
g11
g12
(S'\x07\xdf\t\x11\x11\x03\x00\x00\x00\x00'
p146
g18
tp147
Rp148
sg21
F0.065
sg22
VPercent
p149
sNtp150
a((dp151
g11
g12
(S'\x07\xdf\t\x11\x12\x03\x00\x00\x00\x00'
p152
g18
tp153
Rp154
sg21
F0.062166666666666676
sg22
VPercent
p155
sNtp156
a((dp157
g11
g12
(S'\x07\xdf\t\x11\x13\x03\x00\x00\x00\x00'
p158
g18
tp159
Rp160
sg21
F0.06366666666666668
sg22
VPercent
p161
sNtp162
asS'_DataTable__columns'
p163
(lp164
(dp165
S'container'
p166
S'dict'
p167
sg6
(dp168
sS'label'
p169
S'CPUUtilizationAverage'
p170
sS'depth'
p171
I0
sS'type'
p172
S'number'
p173
sS'id'
p174
g21
sa(dp175
g166
g167
sg6
(dp176
sg169
S'Samples'
p177
sg171
I0
sg172
S'number'
p178
sg174
g177
sa(dp179
g166
g167
sg6
(dp180
sg169
S'Timestamp'
p181
sg171
I0
sg172
S'datetime'
p182
sg174
g11
sa(dp183
g166
g167
sg6
(dp184
sg169
S'Percent'
p185
sg171
I0
sg172
S'string'
p186
sg174
g22
sasb(lp187
g11
aS'CPUUtilizationAverage'
p188
atp189
.