(ccopy_reg
_reconstructor
p0
(cgviz_api
DataTable
p1
c__builtin__
object
p2
Ntp3
Rp4
(dp5
S'custom_properties'
p6
(dp7
sS'_DataTable__data'
p8
(lp9
((dp10
S'Timestamp'
p11
cdatetime
datetime
p12
(S'\x07\xdf\t\x10\x14\x03\x00\x00\x00\x00'
p13
cpytz
_p
p14
(S'America/Los_Angeles'
p15
I-25200
I3600
S'PDT'
p16
tp17
Rp18
tp19
Rp20
sS'Unit'
p21
VCount
p22
sS'RequestCountSum'
p23
F1.0
sNtp24
a((dp25
g11
g12
(S'\x07\xdf\t\x10\x15\x03\x00\x00\x00\x00'
p26
g18
tp27
Rp28
sg21
VCount
p29
sg23
F2.0
sNtp30
a((dp31
g11
g12
(S'\x07\xdf\t\x10\x16\x03\x00\x00\x00\x00'
p32
g18
tp33
Rp34
sg21
VCount
p35
sg23
F9.0
sNtp36
a((dp37
g11
g12
(S'\x07\xdf\t\x10\x17\x03\x00\x00\x00\x00'
p38
g18
tp39
Rp40
sg21
S'Count'
p41
sg23
I0
sNtp42
a((dp43
g11
g12
(S'\x07\xdf\t\x11\x00\x03\x00\x00\x00\x00'
p44
g18
tp45
Rp46
sg21
VCount
p47
sg23
F3.0
sNtp48
a((dp49
g11
g12
(S'\x07\xdf\t\x11\x01\x03\x00\x00\x00\x00'
p50
g18
tp51
Rp52
sg21
g41
sg23
I0
sNtp53
a((dp54
g11
g12
(S'\x07\xdf\t\x11\x02\x03\x00\x00\x00\x00'
p55
g18
tp56
Rp57
sg21
VCount
p58
sg23
F1.0
sNtp59
a((dp60
g11
g12
(S'\x07\xdf\t\x11\x03\x03\x00\x00\x00\x00'
p61
g18
tp62
Rp63
sg21
VCount
p64
sg23
F1.0
sNtp65
a((dp66
g11
g12
(S'\x07\xdf\t\x11\x04\x03\x00\x00\x00\x00'
p67
g18
tp68
Rp69
sg21
g41
sg23
I0
sNtp70
a((dp71
g11
g12
(S'\x07\xdf\t\x11\x05\x03\x00\x00\x00\x00'
p72
g18
tp73
Rp74
sg21
VCount
p75
sg23
F1.0
sNtp76
a((dp77
g11
g12
(S'\x07\xdf\t\x11\x06\x03\x00\x00\x00\x00'
p78
g18
tp79
Rp80
sg21
g41
sg23
I0
sNtp81
a((dp82
g11
g12
(S'\x07\xdf\t\x11\x07\x03\x00\x00\x00\x00'
p83
g18
tp84
Rp85
sg21
VCount
p86
sg23
F22.0
sNtp87
a((dp88
g11
g12
(S'\x07\xdf\t\x11\x08\x03\x00\x00\x00\x00'
p89
g18
tp90
Rp91
sg21
g41
sg23
I0
sNtp92
a((dp93
g11
g12
(S'\x07\xdf\t\x11\t\x03\x00\x00\x00\x00'
p94
g18
tp95
Rp96
sg21
VCount
p97
sg23
F1.0
sNtp98
a((dp99
g11
g12
(S'\x07\xdf\t\x11\n\x03\x00\x00\x00\x00'
p100
g18
tp101
Rp102
sg21
VCount
p103
sg23
F2.0
sNtp104
a((dp105
g11
g12
(S'\x07\xdf\t\x11\x0b\x03\x00\x00\x00\x00'
p106
g18
tp107
Rp108
sg21
VCount
p109
sg23
F1.0
sNtp110
a((dp111
g11
g12
(S'\x07\xdf\t\x11\x0c\x03\x00\x00\x00\x00'
p112
g18
tp113
Rp114
sg21
g41
sg23
I0
sNtp115
a((dp116
g11
g12
(S'\x07\xdf\t\x11\r\x03\x00\x00\x00\x00'
p117
g18
tp118
Rp119
sg21
g41
sg23
I0
sNtp120
a((dp121
g11
g12
(S'\x07\xdf\t\x11\x0e\x03\x00\x00\x00\x00'
p122
g18
tp123
Rp124
sg21
VCount
p125
sg23
F95.0
sNtp126
a((dp127
g11
g12
(S'\x07\xdf\t\x11\x0f\x03\x00\x00\x00\x00'
p128
g18
tp129
Rp130
sg21
VCount
p131
sg23
F4.0
sNtp132
a((dp133
g11
g12
(S'\x07\xdf\t\x11\x10\x03\x00\x00\x00\x00'
p134
g18
tp135
Rp136
sg21
g41
sg23
I0
sNtp137
a((dp138
g11
g12
(S'\x07\xdf\t\x11\x11\x03\x00\x00\x00\x00'
p139
g18
tp140
Rp141
sg21
VCount
p142
sg23
F8.0
sNtp143
a((dp144
g11
g12
(S'\x07\xdf\t\x11\x12\x03\x00\x00\x00\x00'
p145
g18
tp146
Rp147
sg21
VCount
p148
sg23
F1.0
sNtp149
a((dp150
g11
g12
(S'\x07\xdf\t\x11\x13\x03\x00\x00\x00\x00'
p151
g18
tp152
Rp153
sg21
g41
sg23
I0
sNtp154
asS'_DataTable__columns'
p155
(lp156
(dp157
S'container'
p158
S'dict'
p159
sg6
(dp160
sS'label'
p161
S'RequestCountSum'
p162
sS'depth'
p163
I0
sS'type'
p164
S'number'
p165
sS'id'
p166
g23
sa(dp167
g158
g159
sg6
(dp168
sg161
S'Samples'
p169
sg163
I0
sg164
S'number'
p170
sg166
g169
sa(dp171
g158
g159
sg6
(dp172
sg161
S'Timestamp'
p173
sg163
I0
sg164
S'datetime'
p174
sg166
g11
sa(dp175
g158
g159
sg6
(dp176
sg161
g41
sg163
I0
sg164
S'string'
p177
sg166
g21
sasb(lp178
g11
aS'RequestCountSum'
p179
atp180
.