(ccopy_reg
_reconstructor
p0
(cgviz_api
DataTable
p1
c__builtin__
object
p2
Ntp3
Rp4
(dp5
S'custom_properties'
p6
(dp7
sS'_DataTable__data'
p8
(lp9
((dp10
S'Timestamp'
p11
cdatetime
datetime
p12
(S'\x07\xdf\t\x10\x14\x03\x00\x00\x00\x00'
p13
cpytz
_p
p14
(S'America/Los_Angeles'
p15
I-25200
I3600
S'PDT'
p16
tp17
Rp18
tp19
Rp20
sS'Unit'
p21
S'Count'
p22
sS'RequestCountSum'
p23
I0
sNtp24
a((dp25
g11
g12
(S'\x07\xdf\t\x10\x15\x03\x00\x00\x00\x00'
p26
g18
tp27
Rp28
sg21
VCount
p29
sg23
F2.0
sNtp30
a((dp31
g11
g12
(S'\x07\xdf\t\x10\x16\x03\x00\x00\x00\x00'
p32
g18
tp33
Rp34
sg21
VCount
p35
sg23
F13.0
sNtp36
a((dp37
g11
g12
(S'\x07\xdf\t\x10\x17\x03\x00\x00\x00\x00'
p38
g18
tp39
Rp40
sg21
VCount
p41
sg23
F1.0
sNtp42
a((dp43
g11
g12
(S'\x07\xdf\t\x11\x00\x03\x00\x00\x00\x00'
p44
g18
tp45
Rp46
sg21
g22
sg23
I0
sNtp47
a((dp48
g11
g12
(S'\x07\xdf\t\x11\x01\x03\x00\x00\x00\x00'
p49
g18
tp50
Rp51
sg21
g22
sg23
I0
sNtp52
a((dp53
g11
g12
(S'\x07\xdf\t\x11\x02\x03\x00\x00\x00\x00'
p54
g18
tp55
Rp56
sg21
VCount
p57
sg23
F2.0
sNtp58
a((dp59
g11
g12
(S'\x07\xdf\t\x11\x03\x03\x00\x00\x00\x00'
p60
g18
tp61
Rp62
sg21
VCount
p63
sg23
F1.0
sNtp64
a((dp65
g11
g12
(S'\x07\xdf\t\x11\x04\x03\x00\x00\x00\x00'
p66
g18
tp67
Rp68
sg21
g22
sg23
I0
sNtp69
a((dp70
g11
g12
(S'\x07\xdf\t\x11\x05\x03\x00\x00\x00\x00'
p71
g18
tp72
Rp73
sg21
VCount
p74
sg23
F3.0
sNtp75
a((dp76
g11
g12
(S'\x07\xdf\t\x11\x06\x03\x00\x00\x00\x00'
p77
g18
tp78
Rp79
sg21
VCount
p80
sg23
F1.0
sNtp81
a((dp82
g11
g12
(S'\x07\xdf\t\x11\x07\x03\x00\x00\x00\x00'
p83
g18
tp84
Rp85
sg21
g22
sg23
I0
sNtp86
a((dp87
g11
g12
(S'\x07\xdf\t\x11\x08\x03\x00\x00\x00\x00'
p88
g18
tp89
Rp90
sg21
VCount
p91
sg23
F2.0
sNtp92
a((dp93
g11
g12
(S'\x07\xdf\t\x11\t\x03\x00\x00\x00\x00'
p94
g18
tp95
Rp96
sg21
VCount
p97
sg23
F7.0
sNtp98
a((dp99
g11
g12
(S'\x07\xdf\t\x11\n\x03\x00\x00\x00\x00'
p100
g18
tp101
Rp102
sg21
g22
sg23
I0
sNtp103
a((dp104
g11
g12
(S'\x07\xdf\t\x11\x0b\x03\x00\x00\x00\x00'
p105
g18
tp106
Rp107
sg21
VCount
p108
sg23
F1.0
sNtp109
a((dp110
g11
g12
(S'\x07\xdf\t\x11\x0c\x03\x00\x00\x00\x00'
p111
g18
tp112
Rp113
sg21
VCount
p114
sg23
F18.0
sNtp115
a((dp116
g11
g12
(S'\x07\xdf\t\x11\r\x03\x00\x00\x00\x00'
p117
g18
tp118
Rp119
sg21
VCount
p120
sg23
F63.0
sNtp121
a((dp122
g11
g12
(S'\x07\xdf\t\x11\x0e\x03\x00\x00\x00\x00'
p123
g18
tp124
Rp125
sg21
VCount
p126
sg23
F1.0
sNtp127
a((dp128
g11
g12
(S'\x07\xdf\t\x11\x0f\x03\x00\x00\x00\x00'
p129
g18
tp130
Rp131
sg21
VCount
p132
sg23
F2.0
sNtp133
a((dp134
g11
g12
(S'\x07\xdf\t\x11\x10\x03\x00\x00\x00\x00'
p135
g18
tp136
Rp137
sg21
VCount
p138
sg23
F27.0
sNtp139
a((dp140
g11
g12
(S'\x07\xdf\t\x11\x11\x03\x00\x00\x00\x00'
p141
g18
tp142
Rp143
sg21
g22
sg23
I0
sNtp144
a((dp145
g11
g12
(S'\x07\xdf\t\x11\x12\x03\x00\x00\x00\x00'
p146
g18
tp147
Rp148
sg21
g22
sg23
I0
sNtp149
a((dp150
g11
g12
(S'\x07\xdf\t\x11\x13\x03\x00\x00\x00\x00'
p151
g18
tp152
Rp153
sg21
VCount
p154
sg23
F2.0
sNtp155
asS'_DataTable__columns'
p156
(lp157
(dp158
S'container'
p159
S'dict'
p160
sg6
(dp161
sS'label'
p162
S'RequestCountSum'
p163
sS'depth'
p164
I0
sS'type'
p165
S'number'
p166
sS'id'
p167
g23
sa(dp168
g159
g160
sg6
(dp169
sg162
S'Samples'
p170
sg164
I0
sg165
S'number'
p171
sg167
g170
sa(dp172
g159
g160
sg6
(dp173
sg162
S'Timestamp'
p174
sg164
I0
sg165
S'datetime'
p175
sg167
g11
sa(dp176
g159
g160
sg6
(dp177
sg162
g22
sg164
I0
sg165
S'string'
p178
sg167
g21
sasb(lp179
g11
aS'RequestCountSum'
p180
atp181
.